target datalayout = "e-m:e-p270:32:32-p271:32:32-p272:64:64-i64:64-i128:128-f80:128-n8:16:32:64-S128"
target triple = "x86_64-pc-linux-gnu"

@progname = internal global ptr null, align 8
@postopts_file = internal global [1024 x i8] zeroinitializer, align 16
@.str.112 = private unnamed_addr constant [45 x i8] c"%s: single-user server is running (PID: %d)\0A\00", align 1
@.str.113 = private unnamed_addr constant [33 x i8] c"%s: server is running (PID: %d)\0A\00", align 1
@.str.114 = private unnamed_addr constant [23 x i8] c"%s: no server running\0A\00", align 1

; Function Attrs: nounwind uwtable
define internal void @free_readfile(ptr noundef %0) #0 {
  %2 = alloca ptr, align 8
  %3 = alloca ptr, align 8
  %4 = alloca i32, align 4
  %5 = alloca i32, align 4
  store ptr %0, ptr %2, align 8
  call void @llvm.lifetime.start.p0(i64 8, ptr %3) #10
  store ptr null, ptr %3, align 8
  call void @llvm.lifetime.start.p0(i64 4, ptr %4) #10
  store i32 0, ptr %4, align 4
  %6 = load ptr, ptr %2, align 8
  %7 = icmp ne ptr %6, null
  br i1 %7, label %9, label %8

8:                                                ; preds = %1
  store i32 1, ptr %5, align 4
  br label %22

9:                                                ; preds = %1
  br label %10

10:                                               ; preds = %18, %9
  %11 = load ptr, ptr %2, align 8
  %12 = load i32, ptr %4, align 4
  %13 = add i32 %12, 1
  store i32 %13, ptr %4, align 4
  %14 = sext i32 %12 to i64
  %15 = getelementptr inbounds ptr, ptr %11, i64 %14
  %16 = load ptr, ptr %15, align 8
  store ptr %16, ptr %3, align 8
  %17 = icmp ne ptr %16, null
  br i1 %17, label %18, label %20

18:                                               ; preds = %10
  %19 = load ptr, ptr %3, align 8
  call void @free(ptr noundef %19) #10
  br label %10, !llvm.loop !11

20:                                               ; preds = %10
  %21 = load ptr, ptr %2, align 8
  call void @free(ptr noundef %21) #10
  store i32 0, ptr %5, align 4
  br label %22

22:                                               ; preds = %20, %8
  call void @llvm.lifetime.end.p0(i64 4, ptr %4) #10
  call void @llvm.lifetime.end.p0(i64 8, ptr %3) #10
  %23 = load i32, ptr %5, align 4
  switch i32 %23, label %25 [
    i32 0, label %24
    i32 1, label %24
  ]

24:                                               ; preds = %22, %22
  ret void

25:                                               ; preds = %22
  unreachable
}

; Function Attrs: nounwind uwtable
define internal zeroext i1 @postmaster_is_alive(i32 noundef %0) #0 {
  %2 = alloca i1, align 1
  %3 = alloca i32, align 4
  store i32 %0, ptr %3, align 4
  %4 = load i32, ptr %3, align 4
  %5 = call i32 @getpid() #10
  %6 = icmp eq i32 %4, %5
  br i1 %6, label %7, label %8

7:                                                ; preds = %1
  store i1 false, ptr %2, align 1
  br label %19

8:                                                ; preds = %1
  %9 = load i32, ptr %3, align 4
  %10 = call i32 @getppid() #10
  %11 = icmp eq i32 %9, %10
  br i1 %11, label %12, label %13

12:                                               ; preds = %8
  store i1 false, ptr %2, align 1
  br label %19

13:                                               ; preds = %8
  %14 = load i32, ptr %3, align 4
  %15 = call i32 @kill(i32 noundef %14, i32 noundef 0) #10
  %16 = icmp eq i32 %15, 0
  br i1 %16, label %17, label %18

17:                                               ; preds = %13
  store i1 true, ptr %2, align 1
  br label %19

18:                                               ; preds = %13
  store i1 false, ptr %2, align 1
  br label %19

19:                                               ; preds = %18, %17, %12, %7
  %20 = load i1, ptr %2, align 1
  ret i1 %20
}

; Function Attrs: nounwind uwtable
define internal void @do_status() #0 {
  %1 = alloca i32, align 4
  %2 = alloca i32, align 4
  %3 = alloca ptr, align 8
  %4 = alloca ptr, align 8
  %5 = alloca i32, align 4
  call void @llvm.lifetime.start.p0(i64 4, ptr %1) #10
  %6 = call i32 @get_pgpid(i1 noundef zeroext true)
  store i32 %6, ptr %1, align 4
  %7 = load i32, ptr %1, align 4
  %8 = icmp ne i32 %7, 0
  br i1 %8, label %9, label %50

9:                                                ; preds = %0
  %10 = load i32, ptr %1, align 4
  %11 = icmp slt i32 %10, 0
  br i1 %11, label %12, label %22

12:                                               ; preds = %9
  %13 = load i32, ptr %1, align 4
  %14 = sub i32 0, %13
  store i32 %14, ptr %1, align 4
  %15 = load i32, ptr %1, align 4
  %16 = call zeroext i1 @postmaster_is_alive(i32 noundef %15)
  br i1 %16, label %17, label %21

17:                                               ; preds = %12
  %18 = load ptr, ptr @progname, align 8
  %19 = load i32, ptr %1, align 4
  %20 = call i32 (ptr, ...) @pg_printf(ptr noundef @.str.112, ptr noundef %18, i32 noundef %19)
  store i32 1, ptr %2, align 4
  br label %53

21:                                               ; preds = %12
  br label %49

22:                                               ; preds = %9
  %23 = load i32, ptr %1, align 4
  %24 = call zeroext i1 @postmaster_is_alive(i32 noundef %23)
  br i1 %24, label %25, label %48

25:                                               ; preds = %22
  call void @llvm.lifetime.start.p0(i64 8, ptr %3) #10
  call void @llvm.lifetime.start.p0(i64 8, ptr %4) #10
  call void @llvm.lifetime.start.p0(i64 4, ptr %5) #10
  %26 = load ptr, ptr @progname, align 8
  %27 = load i32, ptr %1, align 4
  %28 = call i32 (ptr, ...) @pg_printf(ptr noundef @.str.113, ptr noundef %26, i32 noundef %27)
  %29 = call ptr @readfile(ptr noundef @postopts_file, ptr noundef %5)
  store ptr %29, ptr %3, align 8
  %30 = load ptr, ptr %3, align 8
  %31 = icmp ne ptr %30, null
  br i1 %31, label %32, label %47

32:                                               ; preds = %25
  %33 = load ptr, ptr %3, align 8
  store ptr %33, ptr %4, align 8
  br label %34

34:                                               ; preds = %42, %32
  %35 = load ptr, ptr %4, align 8
  %36 = load ptr, ptr %35, align 8
  %37 = icmp ne ptr %36, null
  br i1 %37, label %38, label %45

38:                                               ; preds = %34
  %39 = load ptr, ptr %4, align 8
  %40 = load ptr, ptr %39, align 8
  %41 = call i32 @puts(ptr noundef %40)
  br label %42

42:                                               ; preds = %38
  %43 = load ptr, ptr %4, align 8
  %44 = getelementptr inbounds nuw ptr, ptr %43, i32 1
  store ptr %44, ptr %4, align 8
  br label %34, !llvm.loop !8

45:                                               ; preds = %34
  %46 = load ptr, ptr %3, align 8
  call void @free_readfile(ptr noundef %46)
  br label %47

47:                                               ; preds = %45, %25
  store i32 1, ptr %2, align 4
  call void @llvm.lifetime.end.p0(i64 4, ptr %5) #10
  call void @llvm.lifetime.end.p0(i64 8, ptr %4) #10
  call void @llvm.lifetime.end.p0(i64 8, ptr %3) #10
  br label %53

48:                                               ; preds = %22
  br label %49

49:                                               ; preds = %48, %21
  br label %50

50:                                               ; preds = %49, %0
  %51 = load ptr, ptr @progname, align 8
  %52 = call i32 (ptr, ...) @pg_printf(ptr noundef @.str.114, ptr noundef %51)
  call void @exit(i32 noundef 3) #12
  unreachable

53:                                               ; preds = %47, %17
  call void @llvm.lifetime.end.p0(i64 4, ptr %1) #10
  ret void
}