; Function Attrs: nounwind uwtable
define internal fastcc void @do_status() unnamed_addr #5 {
  %1 = alloca i32, align 4
  %2 = tail call fastcc i32 @get_pgpid(i1 noundef zeroext true)
  %.not = icmp eq i32 %2, 0
  br i1 %.not, label %postmaster_is_alive.exit.thread, label %3

3:                                                ; preds = %0
  %4 = icmp slt i32 %2, 0
  br i1 %4, label %5, label %17

5:                                                ; preds = %3
  %6 = sub i32 0, %2
  %7 = tail call i32 @getpid() #17
  %8 = icmp eq i32 %7, %6
  br i1 %8, label %postmaster_is_alive.exit.thread, label %9

9:                                                ; preds = %5
  %10 = tail call i32 @getppid() #17
  %11 = icmp eq i32 %10, %6
  br i1 %11, label %postmaster_is_alive.exit.thread, label %postmaster_is_alive.exit

postmaster_is_alive.exit:                         ; preds = %9
  %12 = tail call i32 @kill(i32 noundef range(i32 1, -2147483647) %6, i32 noundef 0) #17
  %13 = icmp eq i32 %12, 0
  br i1 %13, label %14, label %postmaster_is_alive.exit.thread

14:                                               ; preds = %postmaster_is_alive.exit
  %15 = load ptr, ptr @progname, align 8
  %16 = tail call i32 (ptr, ...) @pg_printf(ptr noundef nonnull @.str.112, ptr noundef %15, i32 noundef %6) #17
  br label %42

17:                                               ; preds = %3
  %18 = tail call i32 @getpid() #17
  %19 = icmp eq i32 %2, %18
  br i1 %19, label %postmaster_is_alive.exit.thread, label %20

20:                                               ; preds = %17
  %21 = tail call i32 @getppid() #17
  %22 = icmp eq i32 %2, %21
  br i1 %22, label %postmaster_is_alive.exit.thread, label %postmaster_is_alive.exit18

postmaster_is_alive.exit18:                       ; preds = %20
  %23 = tail call i32 @kill(i32 noundef range(i32 1, -2147483647) %2, i32 noundef 0) #17
  %24 = icmp eq i32 %23, 0
  br i1 %24, label %25, label %postmaster_is_alive.exit.thread

25:                                               ; preds = %postmaster_is_alive.exit18
  call void @llvm.lifetime.start.p0(i64 4, ptr nonnull %1) #17
  %26 = load ptr, ptr @progname, align 8
  %27 = tail call i32 (ptr, ...) @pg_printf(ptr noundef nonnull @.str.113, ptr noundef %26, i32 noundef %2) #17
  %28 = call fastcc ptr @readfile(ptr noundef nonnull @postopts_file, ptr noundef %1)
  %.not15 = icmp eq ptr %28, null
  br i1 %.not15, label %39, label %.preheader

.preheader:                                       ; preds = %25
  %29 = load ptr, ptr %28, align 8
  %.not1621 = icmp eq ptr %29, null
  br i1 %.not1621, label %free_readfile.exit, label %.lr.ph

.lr.ph:                                           ; preds = %.preheader, %.lr.ph
  %30 = phi ptr [ %33, %.lr.ph ], [ %29, %.preheader ]
  %.022 = phi ptr [ %32, %.lr.ph ], [ %28, %.preheader ]
  %31 = tail call i32 @puts(ptr noundef nonnull dereferenceable(1) %30)
  %32 = getelementptr inbounds nuw i8, ptr %.022, i64 8
  %33 = load ptr, ptr %32, align 8
  %.not16 = icmp eq ptr %33, null
  br i1 %.not16, label %.preheader.i, label %.lr.ph, !llvm.loop !6

.preheader.i:                                     ; preds = %.lr.ph
  %.pre = load ptr, ptr %28, align 8
  %.not56.i = icmp eq ptr %.pre, null
  br i1 %.not56.i, label %free_readfile.exit, label %.lr.ph.i

.lr.ph.i:                                         ; preds = %.preheader.i, %.lr.ph.i
  %34 = phi ptr [ %38, %.lr.ph.i ], [ %.pre, %.preheader.i ]
  %.07.i = phi i32 [ %35, %.lr.ph.i ], [ 0, %.preheader.i ]
  %35 = add i32 %.07.i, 1
  tail call void @free(ptr noundef nonnull %34) #17
  %36 = sext i32 %35 to i64
  %37 = getelementptr inbounds ptr, ptr %28, i64 %36
  %38 = load ptr, ptr %37, align 8
  %.not5.i = icmp eq ptr %38, null
  br i1 %.not5.i, label %free_readfile.exit, label %.lr.ph.i, !llvm.loop !7

free_readfile.exit:                               ; preds = %.lr.ph.i, %.preheader, %.preheader.i
  tail call void @free(ptr noundef nonnull %28) #17
  br label %39

39:                                               ; preds = %free_readfile.exit, %25
  call void @llvm.lifetime.end.p0(i64 4, ptr nonnull %1) #17
  br label %42

postmaster_is_alive.exit.thread:                  ; preds = %20, %17, %9, %5, %postmaster_is_alive.exit, %postmaster_is_alive.exit18, %0
  %40 = load ptr, ptr @progname, align 8
  %41 = tail call i32 (ptr, ...) @pg_printf(ptr noundef nonnull @.str.114, ptr noundef %40) #17
  tail call void @exit(i32 noundef 3) #20
  unreachable

42:                                               ; preds = %39, %14
  ret void
}